target datalayout = "e-m:e-p270:32:32-p271:32:32-p272:64:64-i64:64-i128:128-f80:128-n8:16:32:64-S128"
target triple = "x86_64-pc-linux-gnu"

; Function Attrs: nounwind uwtable
define i32 @get_bb(ptr noundef %0, i32 noundef %1, ptr noundef %2) #0 {
  %4 = alloca i32, align 4
  %5 = alloca ptr, align 8
  %6 = alloca i32, align 4
  %7 = alloca ptr, align 8
  %8 = alloca i32, align 4
  %9 = alloca i32, align 4
  %10 = alloca i32, align 4
  %11 = alloca i32, align 4
  store ptr %0, ptr %5, align 8
  store i32 %1, ptr %6, align 4
  store ptr %2, ptr %7, align 8
  store i32 1, ptr %8, align 4
  store i32 0, ptr %9, align 4
  %12 = load i32, ptr %6, align 4
  %13 = icmp sle i32 %12, 0
  br i1 %13, label %14, label %15

14:                                               ; preds = %3
  store i32 0, ptr %4, align 4
  br label %41

15:                                               ; preds = %3
  store i32 0, ptr %10, align 4
  br label %16

16:                                               ; preds = %36, %15
  %17 = load i32, ptr %10, align 4
  %18 = load i32, ptr %6, align 4
  %19 = icmp ult i32 %17, %18
  br i1 %19, label %20, label %39

20:                                               ; preds = %16
  %21 = load ptr, ptr %5, align 8
  %22 = load i32, ptr %8, align 4
  %23 = zext i32 %22 to i64
  %24 = getelementptr inbounds i16, ptr %21, i64 %23
  %25 = load ptr, ptr %7, align 8
  %26 = call i32 @getbit_from_table(ptr noundef %24, ptr noundef %25)
  store i32 %26, ptr %11, align 4
  %27 = load i32, ptr %8, align 4
  %28 = mul i32 %27, 2
  %29 = load i32, ptr %11, align 4
  %30 = add i32 %28, %29
  store i32 %30, ptr %8, align 4
  %31 = load i32, ptr %11, align 4
  %32 = load i32, ptr %10, align 4
  %33 = shl i32 %31, %32
  %34 = load i32, ptr %9, align 4
  %35 = or i32 %34, %33
  store i32 %35, ptr %9, align 4
  br label %36

36:                                               ; preds = %20
  %37 = load i32, ptr %10, align 4
  %38 = add i32 %37, 1
  store i32 %38, ptr %10, align 4
  br label %16

39:                                               ; preds = %16
  %40 = load i32, ptr %9, align 4
  store i32 %40, ptr %4, align 4
  br label %41

41:                                               ; preds = %39, %14
  %42 = load i32, ptr %4, align 4
  ret i32 %42
}