; Function Attrs: nofree norecurse nosync nounwind memory(read, argmem: readwrite, inaccessiblemem: none) uwtable
define i32 @get_bb(ptr noundef %0, i32 noundef %1, ptr nocapture noundef %2) local_unnamed_addr #4 {
  %4 = icmp slt i32 %1, 1
  br i1 %4, label %.loopexit, label %.preheader

.preheader:                                       ; preds = %3, %.preheader
  %.01319 = phi i32 [ %12, %.preheader ], [ 0, %3 ]
  %.01418 = phi i32 [ %11, %.preheader ], [ 0, %3 ]
  %.01517 = phi i32 [ %9, %.preheader ], [ 1, %3 ]
  %5 = zext i32 %.01517 to i64
  %6 = getelementptr inbounds i16, ptr %0, i64 %5
  %7 = tail call i32 @getbit_from_table(ptr noundef %6, ptr noundef %2), !range !5
  %8 = shl i32 %.01517, 1
  %9 = add i32 %7, %8
  %10 = shl i32 %7, %.01319
  %11 = or i32 %10, %.01418
  %12 = add nuw nsw i32 %.01319, 1
  %exitcond.not = icmp eq i32 %12, %1
  br i1 %exitcond.not, label %.loopexit, label %.preheader

.loopexit:                                        ; preds = %.preheader, %3
  %.0 = phi i32 [ 0, %3 ], [ %11, %.preheader ]
  ret i32 %.0
}